target datalayout = "e-m:e-p270:32:32-p271:32:32-p272:64:64-i64:64-i128:128-f80:128-n8:16:32:64-S128"
target triple = "x86_64-unknown-linux-gnu"

%struct.QTailQLink = type { ptr, ptr }
%struct.BlockDriverState = type { i32, i8, i8, i8, i8, i8, ptr, ptr, ptr, %struct.anon.0, i8, [4096 x i8], [4096 x i8], [4096 x i8], [16 x i8], ptr, [4096 x i8], %struct.BlockLimits, i32, i32, i32, i32, [32 x i8], %union.anon, %union.anon.1, %union.anon.2, i32, [16 x %struct.anon.3], ptr, %struct.anon.4, ptr, ptr, %struct.anon.5, ptr, ptr, i32, ptr, i64, i64, %struct.QemuMutex, %struct.anon.6, %struct.Stat64, i32, i32, i32, i32, i32, i32, %struct.QemuMutex, %struct.anon.7, %struct.CoQueue, i8, i32, i8, %struct.CoMutex, ptr, ptr }
%struct.anon.0 = type { ptr }
%struct.BlockLimits = type { i32, i64, i32, i64, i32, i32, i32, i64, i32, i64, i64, i32, i8, i32, i32, i32, i32, i32, i32, i32 }
%union.anon = type { %struct.QTailQLink }
%union.anon.1 = type { %struct.QTailQLink }
%union.anon.2 = type { %struct.QTailQLink }
%struct.anon.3 = type { ptr }
%struct.anon.4 = type { ptr }
%struct.anon.5 = type { ptr }
%struct.anon.6 = type { ptr }
%struct.Stat64 = type { i64 }
%struct.QemuMutex = type { %union.pthread_mutex_t, i8 }
%union.pthread_mutex_t = type { %struct.__pthread_mutex_s }
%struct.__pthread_mutex_s = type { i32, i32, i32, i32, i32, i16, i16, %struct.__pthread_internal_list }
%struct.__pthread_internal_list = type { ptr, ptr }
%struct.anon.7 = type { ptr }
%struct.CoQueue = type { %struct.anon.8 }
%struct.anon.8 = type { ptr, ptr }
%struct.CoMutex = type { i32, ptr, %struct.anon.9, %struct.anon.9, i32, i32, ptr }
%struct.anon.9 = type { ptr }
%struct.BDRVQuorumState = type { ptr, i32, i32, i32, i8, i8, i32 }
%struct.BdrvChild = type { ptr, ptr, ptr, i32, ptr, i64, i64, i8, i8, %struct.anon.10, %struct.anon.11 }
%struct.anon.10 = type { ptr, ptr }
%struct.anon.11 = type { ptr, ptr }
%struct.QList = type { %struct.QObjectBase_, %union.anon.13 }
%struct.QObjectBase_ = type { i32, i64 }
%union.anon.13 = type { %struct.QTailQLink }
%struct.QDict = type { %struct.QObjectBase_, i64, [512 x %struct.anon.14] }
%struct.anon.14 = type { ptr }
%struct.QObject = type { %struct.QObjectBase_ }

@.str.22 = private unnamed_addr constant [9 x i8] c"children\00", align 1

; Function Attrs: nounwind sspstrong uwtable
define internal void @qobject_ref_impl(ptr noundef %obj) #0 {
entry:
  %obj.addr = alloca ptr, align 8
  store ptr %obj, ptr %obj.addr, align 8
  %0 = load ptr, ptr %obj.addr, align 8
  %tobool = icmp ne ptr %0, null
  br i1 %tobool, label %if.then, label %if.end

if.then:                                          ; preds = %entry
  %1 = load ptr, ptr %obj.addr, align 8
  %base = getelementptr inbounds %struct.QObject, ptr %1, i32 0, i32 0
  %refcnt = getelementptr inbounds %struct.QObjectBase_, ptr %base, i32 0, i32 1
  %2 = load i64, ptr %refcnt, align 8
  %inc = add i64 %2, 1
  store i64 %inc, ptr %refcnt, align 8
  br label %if.end

if.end:                                           ; preds = %if.then, %entry
  ret void
}

; Function Attrs: nounwind sspstrong uwtable
define internal void @quorum_gather_child_options(ptr noundef %bs, ptr noundef %target, i1 noundef zeroext %backing_overridden) #0 {
entry:
  %bs.addr = alloca ptr, align 8
  %target.addr = alloca ptr, align 8
  %backing_overridden.addr = alloca i8, align 1
  %s = alloca ptr, align 8
  %children_list = alloca ptr, align 8
  %i = alloca i32, align 4
  %_obj4 = alloca ptr, align 8
  %tmp = alloca ptr, align 8
  %__mptr = alloca ptr, align 8
  %tmp1 = alloca ptr, align 8
  %_obj6 = alloca ptr, align 8
  %_o = alloca ptr, align 8
  %_obj5 = alloca ptr, align 8
  %tmp3 = alloca ptr, align 8
  %__mptr6 = alloca ptr, align 8
  %tmp8 = alloca ptr, align 8
  %tmp13 = alloca ptr, align 8
  %tmp14 = alloca ptr, align 8
  %__mptr17 = alloca ptr, align 8
  %tmp19 = alloca ptr, align 8
  store ptr %bs, ptr %bs.addr, align 8
  store ptr %target, ptr %target.addr, align 8
  %frombool = zext i1 %backing_overridden to i8
  store i8 %frombool, ptr %backing_overridden.addr, align 1
  %0 = load ptr, ptr %bs.addr, align 8
  %opaque = getelementptr inbounds %struct.BlockDriverState, ptr %0, i32 0, i32 7
  %1 = load ptr, ptr %opaque, align 8
  store ptr %1, ptr %s, align 8
  %call = call ptr @qlist_new()
  store ptr %call, ptr %children_list, align 8
  %2 = load ptr, ptr %target.addr, align 8
  %3 = load ptr, ptr %children_list, align 8
  store ptr %3, ptr %_obj4, align 8
  %4 = load ptr, ptr %_obj4, align 8
  %tobool = icmp ne ptr %4, null
  br i1 %tobool, label %cond.true, label %cond.false

cond.true:                                        ; preds = %entry
  %5 = load ptr, ptr %_obj4, align 8
  %base = getelementptr inbounds %struct.QList, ptr %5, i32 0, i32 0
  store ptr %base, ptr %__mptr, align 8
  %6 = load ptr, ptr %__mptr, align 8
  %add.ptr = getelementptr i8, ptr %6, i64 0
  store ptr %add.ptr, ptr %tmp1, align 8
  %7 = load ptr, ptr %tmp1, align 8
  br label %cond.end

cond.false:                                       ; preds = %entry
  br label %cond.end

cond.end:                                         ; preds = %cond.false, %cond.true
  %cond = phi ptr [ %7, %cond.true ], [ null, %cond.false ]
  store ptr %cond, ptr %tmp, align 8
  %8 = load ptr, ptr %tmp, align 8
  call void @qdict_put_obj(ptr noundef %2, ptr noundef @.str.22, ptr noundef %8)
  store i32 0, ptr %i, align 4
  br label %for.cond

for.cond:                                         ; preds = %for.inc, %cond.end
  %9 = load i32, ptr %i, align 4
  %10 = load ptr, ptr %s, align 8
  %num_children = getelementptr inbounds %struct.BDRVQuorumState, ptr %10, i32 0, i32 1
  %11 = load i32, ptr %num_children, align 8
  %cmp = icmp slt i32 %9, %11
  br i1 %cmp, label %for.body, label %for.end

for.body:                                         ; preds = %for.cond
  %12 = load ptr, ptr %children_list, align 8
  %13 = load ptr, ptr %s, align 8
  %children = getelementptr inbounds %struct.BDRVQuorumState, ptr %13, i32 0, i32 0
  %14 = load ptr, ptr %children, align 8
  %15 = load i32, ptr %i, align 4
  %idxprom = sext i32 %15 to i64
  %arrayidx = getelementptr ptr, ptr %14, i64 %idxprom
  %16 = load ptr, ptr %arrayidx, align 8
  %bs2 = getelementptr inbounds %struct.BdrvChild, ptr %16, i32 0, i32 0
  %17 = load ptr, ptr %bs2, align 8
  %full_open_options = getelementptr inbounds %struct.BlockDriverState, ptr %17, i32 0, i32 15
  %18 = load ptr, ptr %full_open_options, align 8
  store ptr %18, ptr %_o, align 8
  %19 = load ptr, ptr %_o, align 8
  store ptr %19, ptr %_obj5, align 8
  %20 = load ptr, ptr %_obj5, align 8
  %tobool4 = icmp ne ptr %20, null
  br i1 %tobool4, label %cond.true5, label %cond.false10

cond.true5:                                       ; preds = %for.body
  %21 = load ptr, ptr %_obj5, align 8
  %base7 = getelementptr inbounds %struct.QDict, ptr %21, i32 0, i32 0
  store ptr %base7, ptr %__mptr6, align 8
  %22 = load ptr, ptr %__mptr6, align 8
  %add.ptr9 = getelementptr i8, ptr %22, i64 0
  store ptr %add.ptr9, ptr %tmp8, align 8
  %23 = load ptr, ptr %tmp8, align 8
  br label %cond.end11

cond.false10:                                     ; preds = %for.body
  br label %cond.end11

cond.end11:                                       ; preds = %cond.false10, %cond.true5
  %cond12 = phi ptr [ %23, %cond.true5 ], [ null, %cond.false10 ]
  store ptr %cond12, ptr %tmp3, align 8
  %24 = load ptr, ptr %tmp3, align 8
  call void @qobject_ref_impl(ptr noundef %24)
  %25 = load ptr, ptr %_o, align 8
  store ptr %25, ptr %tmp13, align 8
  %26 = load ptr, ptr %tmp13, align 8
  store ptr %26, ptr %_obj6, align 8
  %27 = load ptr, ptr %_obj6, align 8
  %tobool15 = icmp ne ptr %27, null
  br i1 %tobool15, label %cond.true16, label %cond.false21

cond.true16:                                      ; preds = %cond.end11
  %28 = load ptr, ptr %_obj6, align 8
  %base18 = getelementptr inbounds %struct.QDict, ptr %28, i32 0, i32 0
  store ptr %base18, ptr %__mptr17, align 8
  %29 = load ptr, ptr %__mptr17, align 8
  %add.ptr20 = getelementptr i8, ptr %29, i64 0
  store ptr %add.ptr20, ptr %tmp19, align 8
  %30 = load ptr, ptr %tmp19, align 8
  br label %cond.end22

cond.false21:                                     ; preds = %cond.end11
  br label %cond.end22

cond.end22:                                       ; preds = %cond.false21, %cond.true16
  %cond23 = phi ptr [ %30, %cond.true16 ], [ null, %cond.false21 ]
  store ptr %cond23, ptr %tmp14, align 8
  %31 = load ptr, ptr %tmp14, align 8
  call void @qlist_append_obj(ptr noundef %12, ptr noundef %31)
  br label %for.inc

for.inc:                                          ; preds = %cond.end22
  %32 = load i32, ptr %i, align 4
  %inc = add i32 %32, 1
  store i32 %inc, ptr %i, align 4
  br label %for.cond, !llvm.loop !10

for.end:                                          ; preds = %for.cond
  ret void
}