; Function Attrs: nounwind sspstrong uwtable
define internal void @quorum_gather_child_options(ptr noundef readonly captures(none) %bs, ptr noundef %target, i1 zeroext %backing_overridden) #0 {
entry:
  %opaque = getelementptr inbounds nuw i8, ptr %bs, i64 24
  %0 = load ptr, ptr %opaque, align 8
  %call = tail call ptr @qlist_new() #17
  tail call void @qdict_put_obj(ptr noundef %target, ptr noundef nonnull @.str.22, ptr noundef %call) #17
  %num_children = getelementptr inbounds nuw i8, ptr %0, i64 8
  %1 = load i32, ptr %num_children, align 8
  %cmp10 = icmp sgt i32 %1, 0
  br i1 %cmp10, label %for.body, label %for.end

for.body:                                         ; preds = %entry, %qobject_ref_impl.exit
  %indvars.iv = phi i64 [ %indvars.iv.next, %qobject_ref_impl.exit ], [ 0, %entry ]
  %2 = load ptr, ptr %0, align 8
  %arrayidx = getelementptr ptr, ptr %2, i64 %indvars.iv
  %3 = load ptr, ptr %arrayidx, align 8
  %4 = load ptr, ptr %3, align 8
  %full_open_options = getelementptr inbounds nuw i8, ptr %4, i64 12360
  %5 = load ptr, ptr %full_open_options, align 8
  %tobool4.not = icmp eq ptr %5, null
  br i1 %tobool4.not, label %qobject_ref_impl.exit, label %if.then.i

if.then.i:                                        ; preds = %for.body
  %refcnt.i = getelementptr inbounds nuw i8, ptr %5, i64 8
  %6 = load i64, ptr %refcnt.i, align 8
  %inc.i = add i64 %6, 1
  store i64 %inc.i, ptr %refcnt.i, align 8
  br label %qobject_ref_impl.exit

qobject_ref_impl.exit:                            ; preds = %for.body, %if.then.i
  tail call void @qlist_append_obj(ptr noundef %call, ptr noundef %5) #17
  %indvars.iv.next = add nuw nsw i64 %indvars.iv, 1
  %7 = load i32, ptr %num_children, align 8
  %8 = sext i32 %7 to i64
  %cmp = icmp slt i64 %indvars.iv.next, %8
  br i1 %cmp, label %for.body, label %for.end, !llvm.loop !11

for.end:                                          ; preds = %qobject_ref_impl.exit, %entry
  ret void
}